Certificate:
    Data:
        Version: 3 (0x2)
        Serial Number: 4096 (0x1000)
        Signature Algorithm: sha256WithRSAEncryption
        Issuer: C=AR, ST=Buenos Aires, L=Los Polvorines, O=Seguritas, CN=secure-example.com/emailAddress=contacto@falsa.com
        Validity
            Not Before: Jul 12 20:39:23 2026 GMT
            Not After : Jul 12 20:39:23 2027 GMT
        Subject: C=AR, ST=Buenos Aires, O=Seguritas, CN=carol/emailAddress=carol@falsa.com
        Subject Public Key Info:
            Public Key Algorithm: rsaEncryption
                RSA Public-Key: (2048 bit)
                Modulus:
                    00:bd:1d:b1:26:f5:de:9b:ae:ff:aa:17:72:58:1e:
                    3b:20:dc:e2:0f:a2:54:df:6c:c7:ea:7f:bc:29:a5:
                    b8:db:8e:e0:29:bd:34:ac:3e:8e:a6:df:8f:18:3c:
                    78:b3:5f:27:53:9b:5d:33:22:f5:53:08:c5:6e:91:
                    c3:35:70:91:a6:14:6c:6e:e8:74:e2:60:d2:64:10:
                    e8:34:5f:f3:77:84:bc:61:87:38:16:15:ec:51:bc:
                    b8:ac:08:82:09:9b:22:e8:fa:b9:d0:0e:3d:f1:44:
                    df:e1:55:ac:5b:af:36:15:42:3b:bf:4d:de:8f:72:
                    f4:37:7d:65:7d:87:fb:c9:2d:98:b3:dd:1f:a1:fa:
                    e7:db:a4:f0:c8:ff:d4:dd:22:8f:0b:f0:7f:c8:5a:
                    8b:72:7a:8f:f6:9c:6b:5e:ca:cc:72:99:ab:d8:45:
                    a6:f4:18:e2:c4:89:78:c0:4c:9a:52:a2:6d:85:bb:
                    d9:00:5a:f9:59:90:1e:7f:eb:7b:41:1c:78:bf:ff:
                    ad:88:21:eb:b7:ed:f8:b6:47:57:fa:05:d7:88:c5:
                    8a:79:49:c1:60:e9:a0:00:34:48:b0:c3:d0:9d:2e:
                    29:45:af:a4:a4:c6:6e:cc:b2:de:8b:71:96:24:bb:
                    78:c1:76:02:be:7f:c5:66:7b:44:02:b9:ec:cb:21:
                    04:95
                Exponent: 65537 (0x10001)
        X509v3 extensions:
            X509v3 Basic Constraints: 
                CA:FALSE
            Netscape Comment: 
                OpenSSL Generated Certificate
            X509v3 Subject Key Identifier: 
                2E:A0:AE:4E:D1:68:55:9D:36:14:A9:6B:DA:24:42:6C:4F:39:E7:0C
            X509v3 Authority Key Identifier: 
                keyid:93:02:A0:DA:BC:CC:52:7D:54:68:43:96:6D:54:68:E8:69:77:8E:78

    Signature Algorithm: sha256WithRSAEncryption
         5c:9b:95:f1:0c:46:41:17:ec:ac:5c:a8:aa:b9:47:b0:fb:6d:
         0f:41:3b:26:75:f9:2d:a1:1f:7b:b8:86:ce:85:d2:9f:2e:1a:
         0f:65:e7:37:5b:6d:6b:cb:73:c7:66:15:32:89:e0:9f:11:5b:
         87:c3:9c:f2:6a:79:68:bc:b2:ca:b1:dd:70:e4:fc:5d:bd:28:
         6b:1b:5c:7a:f1:96:20:71:be:ab:17:75:18:23:93:f1:ca:44:
         61:d5:49:e8:9f:3a:6a:85:01:d9:6d:45:1e:57:05:c5:3d:d0:
         e6:f8:85:23:a7:f0:52:cc:8b:84:8b:cc:6f:56:e4:fc:45:f0:
         46:51:4b:5b:95:d8:77:eb:2a:8b:0a:ad:ef:c9:91:8c:b8:47:
         c1:5d:82:75:69:9e:44:1e:23:3a:33:08:08:aa:43:ba:26:b6:
         51:95:7a:37:e1:d9:01:37:86:87:10:a6:7f:1f:34:48:72:50:
         72:dc:cd:52:ff:63:b3:60:a1:e1:96:41:27:9e:9d:e9:7b:bb:
         20:95:15:a6:99:50:fc:25:8a:b4:b5:26:61:6e:ad:01:cc:1d:
         52:61:44:01:ec:35:14:8d:2c:2c:f5:28:d2:dc:72:92:cc:88:
         89:0e:af:1d:bb:ac:59:e8:b8:10:fe:cb:b9:3f:e4:8c:b3:fd:
         24:6b:e7:b9
-----BEGIN CERTIFICATE-----
MIID8TCCAtmgAwIBAgICEAAwDQYJKoZIhvcNAQELBQAwgZExCzAJBgNVBAYTAkFS
MRUwEwYDVQQIDAxCdWVub3MgQWlyZXMxFzAVBgNVBAcMDkxvcyBQb2x2b3JpbmVz
MRIwEAYDVQQKDAlTZWd1cml0YXMxGzAZBgNVBAMMEnNlY3VyZS1leGFtcGxlLmNv
bTEhMB8GCSqGSIb3DQEJARYSY29udGFjdG9AZmFsc2EuY29tMB4XDTI2MDcxMjIw
MzkyM1oXDTI3MDcxMjIwMzkyM1owaDELMAkGA1UEBhMCQVIxFTATBgNVBAgMDEJ1
ZW5vcyBBaXJlczESMBAGA1UECgwJU2VndXJpdGFzMQ4wDAYDVQQDDAVjYXJvbDEe
MBwGCSqGSIb3DQEJARYPY2Fyb2xAZmFsc2EuY29tMIIBIjANBgkqhkiG9w0BAQEF
AAOCAQ8AMIIBCgKCAQEAvR2xJvXem67/qhdyWB47INziD6JU32zH6n+8KaW4247g
Kb00rD6Opt+PGDx4s18nU5tdMyL1UwjFbpHDNXCRphRsbuh04mDSZBDoNF/zd4S8
YYc4FhXsUby4rAiCCZsi6Pq50A498UTf4VWsW682FUI7v03ej3L0N31lfYf7yS2Y
s90fofrn26TwyP/U3SKPC/B/yFqLcnqP9pxrXsrMcpmr2EWm9BjixIl4wEyaUqJt
hbvZAFr5WZAef+t7QRx4v/+tiCHrt+34tkdX+gXXiMWKeUnBYOmgADRIsMPQnS4p
Ra+kpMZuzLLei3GWJLt4wXYCvn/FZntEArnsyyEElQIDAQABo3sweTAJBgNVHRME
AjAAMCwGCWCGSAGG+EIBDQQfFh1PcGVuU1NMIEdlbmVyYXRlZCBDZXJ0aWZpY2F0
ZTAdBgNVHQ4EFgQULqCuTtFoVZ02FKlr2iRCbE855wwwHwYDVR0jBBgwFoAUkwKg
2rzMUn1UaEOWbVRo6Gl3jngwDQYJKoZIhvcNAQELBQADggEBAFyblfEMRkEX7Kxc
qKq5R7D7bQ9BOyZ1+S2hH3u4hs6F0p8uGg9l5zdbbWvLc8dmFTKJ4J8RW4fDnPJq
eWi8ssqx3XDk/F29KGsbXHrxliBxvqsXdRgjk/HKRGHVSeifOmqFAdltRR5XBcU9
0Ob4hSOn8FLMi4SLzG9W5PxF8EZRS1uV2HfrKosKre/JkYy4R8FdgnVpnkQeIzoz
CAiqQ7omtlGVejfh2QE3hocQpn8fNEhyUHLczVL/Y7NgoeGWQSeenel7uyCVFaaZ
UPwlirS1JmFurQHMHVJhRAHsNRSNLCz1KNLccpLMiIkOrx27rFnouBD+y7k/5Iyz
/SRr57k=
-----END CERTIFICATE-----
